target datalayout = "e-m:e-p270:32:32-p271:32:32-p272:64:64-i64:64-i128:128-f80:128-n8:16:32:64-S128"
target triple = "x86_64-pc-linux-gnu"

%"class.icu_77::SimpleFilteredSentenceBreakIterator" = type { %"class.icu_77::BreakIterator", ptr, %"class.icu_77::LocalPointer.0", %"class.icu_77::internal::LocalOpenPointer" }
%"class.icu_77::BreakIterator" = type { %"class.icu_77::UObject", ptr, ptr, ptr }
%"class.icu_77::UObject" = type { ptr }
%"class.icu_77::LocalPointer.0" = type { %"class.icu_77::LocalPointerBase.1" }
%"class.icu_77::LocalPointerBase.1" = type { ptr }
%"class.icu_77::internal::LocalOpenPointer" = type { %"class.icu_77::LocalPointerBase.2" }
%"class.icu_77::LocalPointerBase.2" = type { ptr }

; Function Attrs: mustprogress nounwind uwtable
define linkonce_odr noundef ptr @_ZNK6icu_7716LocalPointerBaseINS_13BreakIteratorEEptEv(ptr noundef nonnull align 8 dereferenceable(8) %0) #1 comdat align 2 {
  %2 = alloca ptr, align 8
  store ptr %0, ptr %2, align 8, !tbaa !30
  %3 = load ptr, ptr %2, align 8
  %4 = getelementptr inbounds nuw %"class.icu_77::LocalPointerBase.1", ptr %3, i32 0, i32 0
  %5 = load ptr, ptr %4, align 8, !tbaa !32
  ret ptr %5
}

; Function Attrs: mustprogress uwtable
define noundef i32 @_ZN6icu_7735SimpleFilteredSentenceBreakIterator9followingEi(ptr noundef nonnull align 8 dereferenceable(56) %0, i32 noundef %1) unnamed_addr #2 align 2 {
  %3 = alloca ptr, align 8
  %4 = alloca i32, align 4
  store ptr %0, ptr %3, align 8, !tbaa !17
  store i32 %1, ptr %4, align 4, !tbaa !46
  %5 = load ptr, ptr %3, align 8
  %6 = getelementptr inbounds nuw %"class.icu_77::SimpleFilteredSentenceBreakIterator", ptr %5, i32 0, i32 2
  %7 = call noundef ptr @_ZNK6icu_7716LocalPointerBaseINS_13BreakIteratorEEptEv(ptr noundef nonnull align 8 dereferenceable(8) %6)
  %8 = load i32, ptr %4, align 4, !tbaa !46
  %9 = load ptr, ptr %7, align 8, !tbaa !10
  %10 = getelementptr inbounds ptr, ptr %9, i64 15
  %11 = load ptr, ptr %10, align 8
  %12 = call noundef i32 %11(ptr noundef nonnull align 8 dereferenceable(32) %7, i32 noundef %8)
  %13 = call noundef i32 @_ZN6icu_7735SimpleFilteredSentenceBreakIterator12internalNextEi(ptr noundef nonnull align 8 dereferenceable(56) %5, i32 noundef %12)
  ret i32 %13
}